; Function Attrs: nounwind uwtable
define i32 @wc_Tls13_HKDF_Extract_ex(ptr noundef %0, ptr noundef %1, i32 noundef %2, ptr noundef %3, i32 noundef %4, i32 noundef %5, ptr noundef %6, i32 noundef %7) local_unnamed_addr #0 {
  switch i32 %5, label %16 [
    i32 6, label %10
    i32 7, label %9
  ]

9:                                                ; preds = %8
  br label %10

10:                                               ; preds = %8, %9
  %.0 = phi i32 [ 48, %9 ], [ 32, %8 ]
  %11 = icmp eq i32 %4, 0
  br i1 %11, label %12, label %14

12:                                               ; preds = %10
  %13 = zext nneg i32 %.0 to i64
  tail call void @llvm.memset.p0.i64(ptr noundef nonnull align 1 dereferenceable(1) %3, i8 0, i64 %13, i1 false)
  br label %14

14:                                               ; preds = %12, %10
  %.015 = phi i32 [ %.0, %12 ], [ %4, %10 ]
  %15 = tail call i32 @wc_HKDF_Extract_ex(i32 noundef %5, ptr noundef %1, i32 noundef %2, ptr noundef %3, i32 noundef %.015, ptr noundef %0, ptr noundef %6, i32 noundef %7) #6
  br label %16

16:                                               ; preds = %8, %14
  %.014 = phi i32 [ %15, %14 ], [ -173, %8 ]
  ret i32 %.014
}